; ModuleID = '4/1966.c'
source_filename = "4/1966.c"
target datalayout = "e-m:e-p270:32:32-p271:32:32-p272:64:64-i64:64-f80:128-n8:16:32:64-S128"
target triple = "x86_64-pc-linux-gnu"

@.str = private unnamed_addr constant [6 x i8] c"%d %d\00", align 1
@.str.1 = private unnamed_addr constant [3 x i8] c"%d\00", align 1
@.str.2 = private unnamed_addr constant [4 x i8] c"%d\0A\00", align 1

; Function Attrs: noinline nounwind uwtable
define dso_local void @main() #0 {
  %1 = alloca i32, align 4
  %2 = alloca i32, align 4
  %3 = alloca i32, align 4
  %4 = alloca i32, align 4
  %5 = alloca i32, align 4
  %6 = alloca i32*, align 8
  %7 = call i32 (i8*, ...) @__isoc99_scanf(i8* getelementptr inbounds ([6 x i8], [6 x i8]* @.str, i64 0, i64 0), i32* %1, i32* %2)
  %8 = load i32, i32* %1, align 4
  %9 = sext i32 %8 to i64
  %10 = mul i64 4, %9
  %11 = load i32, i32* %2, align 4
  %12 = sext i32 %11 to i64
  %13 = mul i64 %10, %12
  %14 = call noalias i8* @malloc(i64 %13) #3
  %15 = bitcast i8* %14 to i32*
  store i32* %15, i32** %6, align 8
  store i32 0, i32* %3, align 4
  br label %16

16:                                               ; preds = %28, %0
  %17 = load i32, i32* %3, align 4
  %18 = load i32, i32* %1, align 4
  %19 = load i32, i32* %2, align 4
  %20 = mul nsw i32 %18, %19
  %21 = icmp slt i32 %17, %20
  br i1 %21, label %22, label %31

22:                                               ; preds = %16
  %23 = load i32*, i32** %6, align 8
  %24 = load i32, i32* %3, align 4
  %25 = sext i32 %24 to i64
  %26 = getelementptr inbounds i32, i32* %23, i64 %25
  %27 = call i32 (i8*, ...) @__isoc99_scanf(i8* getelementptr inbounds ([3 x i8], [3 x i8]* @.str.1, i64 0, i64 0), i32* %26)
  br label %28

28:                                               ; preds = %22
  %29 = load i32, i32* %3, align 4
  %30 = add nsw i32 %29, 1
  store i32 %30, i32* %3, align 4
  br label %16

31:                                               ; preds = %16
  %32 = load i32*, i32** %6, align 8
  %33 = load i32, i32* %32, align 4
  %34 = call i32 (i8*, ...) @printf(i8* getelementptr inbounds ([4 x i8], [4 x i8]* @.str.2, i64 0, i64 0), i32 %33)
  %35 = load i32*, i32** %6, align 8
  %36 = getelementptr inbounds i32, i32* %35, i32 1
  store i32* %36, i32** %6, align 8
  store i32 1, i32* %3, align 4
  br label %37

37:                                               ; preds = %71, %31
  %38 = load i32, i32* %3, align 4
  %39 = load i32, i32* %2, align 4
  %40 = icmp slt i32 %38, %39
  br i1 %40, label %41, label %76

41:                                               ; preds = %37
  store i32 0, i32* %4, align 4
  store i32 0, i32* %5, align 4
  br label %42

42:                                               ; preds = %63, %41
  %43 = load i32, i32* %5, align 4
  %44 = load i32, i32* %3, align 4
  %45 = icmp sle i32 %43, %44
  br i1 %45, label %46, label %54

46:                                               ; preds = %42
  %47 = load i32, i32* %3, align 4
  %48 = load i32, i32* %4, align 4
  %49 = add nsw i32 %47, %48
  %50 = load i32, i32* %1, align 4
  %51 = load i32, i32* %2, align 4
  %52 = mul nsw i32 %50, %51
  %53 = icmp slt i32 %49, %52
  br label %54

54:                                               ; preds = %46, %42
  %55 = phi i1 [ false, %42 ], [ %53, %46 ]
  br i1 %55, label %56, label %70

56:                                               ; preds = %54
  %57 = load i32*, i32** %6, align 8
  %58 = load i32, i32* %4, align 4
  %59 = sext i32 %58 to i64
  %60 = getelementptr inbounds i32, i32* %57, i64 %59
  %61 = load i32, i32* %60, align 4
  %62 = call i32 (i8*, ...) @printf(i8* getelementptr inbounds ([4 x i8], [4 x i8]* @.str.2, i64 0, i64 0), i32 %61)
  br label %63

63:                                               ; preds = %56
  %64 = load i32, i32* %5, align 4
  %65 = add nsw i32 %64, 1
  store i32 %65, i32* %5, align 4
  %66 = load i32, i32* %4, align 4
  %67 = load i32, i32* %2, align 4
  %68 = add nsw i32 %66, %67
  %69 = sub nsw i32 %68, 1
  store i32 %69, i32* %4, align 4
  br label %42

70:                                               ; preds = %54
  br label %71

71:                                               ; preds = %70
  %72 = load i32, i32* %3, align 4
  %73 = add nsw i32 %72, 1
  store i32 %73, i32* %3, align 4
  %74 = load i32*, i32** %6, align 8
  %75 = getelementptr inbounds i32, i32* %74, i32 1
  store i32* %75, i32** %6, align 8
  br label %37

76:                                               ; preds = %37
  %77 = load i32, i32* %2, align 4
  %78 = sub nsw i32 %77, 1
  %79 = load i32*, i32** %6, align 8
  %80 = sext i32 %78 to i64
  %81 = getelementptr inbounds i32, i32* %79, i64 %80
  store i32* %81, i32** %6, align 8
  store i32 1, i32* %3, align 4
  br label %82

82:                                               ; preds = %122, %76
  %83 = load i32, i32* %3, align 4
  %84 = load i32, i32* %1, align 4
  %85 = sub nsw i32 %84, 1
  %86 = icmp sle i32 %83, %85
  br i1 %86, label %87, label %129

87:                                               ; preds = %82
  store i32 0, i32* %4, align 4
  store i32 0, i32* %5, align 4
  br label %88

88:                                               ; preds = %114, %87
  %89 = load i32, i32* %5, align 4
  %90 = load i32, i32* %1, align 4
  %91 = load i32, i32* %3, align 4
  %92 = sub nsw i32 %90, %91
  %93 = icmp slt i32 %89, %92
  br i1 %93, label %94, label %105

94:                                               ; preds = %88
  %95 = load i32, i32* %5, align 4
  %96 = load i32, i32* %2, align 4
  %97 = icmp slt i32 %95, %96
  br i1 %97, label %98, label %105

98:                                               ; preds = %94
  %99 = load i32*, i32** %6, align 8
  %100 = load i32, i32* %4, align 4
  %101 = sext i32 %100 to i64
  %102 = getelementptr inbounds i32, i32* %99, i64 %101
  %103 = load i32, i32* %102, align 4
  %104 = icmp ne i32 %103, 0
  br label %105

105:                                              ; preds = %98, %94, %88
  %106 = phi i1 [ false, %94 ], [ false, %88 ], [ %104, %98 ]
  br i1 %106, label %107, label %121

107:                                              ; preds = %105
  %108 = load i32*, i32** %6, align 8
  %109 = load i32, i32* %4, align 4
  %110 = sext i32 %109 to i64
  %111 = getelementptr inbounds i32, i32* %108, i64 %110
  %112 = load i32, i32* %111, align 4
  %113 = call i32 (i8*, ...) @printf(i8* getelementptr inbounds ([4 x i8], [4 x i8]* @.str.2, i64 0, i64 0), i32 %112)
  br label %114

114:                                              ; preds = %107
  %115 = load i32, i32* %5, align 4
  %116 = add nsw i32 %115, 1
  store i32 %116, i32* %5, align 4
  %117 = load i32, i32* %4, align 4
  %118 = load i32, i32* %2, align 4
  %119 = add nsw i32 %117, %118
  %120 = sub nsw i32 %119, 1
  store i32 %120, i32* %4, align 4
  br label %88

121:                                              ; preds = %105
  br label %122

122:                                              ; preds = %121
  %123 = load i32, i32* %3, align 4
  %124 = add nsw i32 %123, 1
  store i32 %124, i32* %3, align 4
  %125 = load i32, i32* %2, align 4
  %126 = load i32*, i32** %6, align 8
  %127 = sext i32 %125 to i64
  %128 = getelementptr inbounds i32, i32* %126, i64 %127
  store i32* %128, i32** %6, align 8
  br label %82

129:                                              ; preds = %82
  ret void
}

declare dso_local i32 @__isoc99_scanf(i8*, ...) #1

; Function Attrs: nounwind
declare dso_local noalias i8* @malloc(i64) #2

declare dso_local i32 @printf(i8*, ...) #1


!llvm.module.flags = !{!0}
!llvm.ident = !{!1}

!0 = !{i32 1, !"wchar_size", i32 4}
!1 = !{!"clang version 10.0.0-4ubuntu1 "}
